; ModuleID = 'source-C-CXX/61/88.c'
source_filename = "source-C-CXX/61/88.c"
target datalayout = "e-m:e-p270:32:32-p271:32:32-p272:64:64-i64:64-f80:128-n8:16:32:64-S128"
target triple = "x86_64-pc-linux-gnu"

@.str = private unnamed_addr constant [3 x i8] c"%s\00", align 1

; Function Attrs: nounwind sspstrong uwtable
define dso_local i32 @main() local_unnamed_addr #0 {
  %1 = alloca [10000 x i8], align 16
  %2 = getelementptr inbounds [10000 x i8], [10000 x i8]* %1, i64 0, i64 0
  call void @llvm.lifetime.start.p0i8(i64 10000, i8* nonnull %2) #4
  %3 = call i32 (i8*, ...) bitcast (i32 (...)* @gets to i32 (i8*, ...)*)(i8* nonnull %2) #4
  br label %4

4:                                                ; preds = %26, %0
  %5 = phi i32 [ 0, %0 ], [ %28, %26 ]
  %6 = sext i32 %5 to i64
  %7 = getelementptr inbounds [10000 x i8], [10000 x i8]* %1, i64 0, i64 %6
  %8 = load i8, i8* %7, align 1, !tbaa !5
  switch i8 %8, label %26 [
    i8 0, label %29
    i8 32, label %9
  ]

9:                                                ; preds = %4
  %10 = add nsw i32 %5, -1
  %11 = sext i32 %10 to i64
  %12 = getelementptr inbounds [10000 x i8], [10000 x i8]* %1, i64 0, i64 %11
  %13 = load i8, i8* %12, align 1, !tbaa !5
  %14 = icmp eq i8 %13, 32
  br i1 %14, label %15, label %26

15:                                               ; preds = %9, %15
  %16 = phi i64 [ %17, %15 ], [ %6, %9 ]
  %17 = add nsw i64 %16, 1
  %18 = getelementptr inbounds [10000 x i8], [10000 x i8]* %1, i64 0, i64 %17
  %19 = load i8, i8* %18, align 1, !tbaa !5
  %20 = getelementptr inbounds [10000 x i8], [10000 x i8]* %1, i64 0, i64 %16
  store i8 %19, i8* %20, align 1, !tbaa !5
  %21 = icmp eq i8 %19, 0
  br i1 %21, label %22, label %15

22:                                               ; preds = %15
  %23 = load i8, i8* %7, align 1, !tbaa !5
  %24 = icmp eq i8 %23, 32
  %25 = select i1 %24, i32 %10, i32 %5
  br label %26

26:                                               ; preds = %22, %4, %9
  %27 = phi i32 [ %5, %9 ], [ %5, %4 ], [ %25, %22 ]
  %28 = add nsw i32 %27, 1
  br label %4, !llvm.loop !8

29:                                               ; preds = %4
  %30 = call i32 (i8*, ...) @printf(i8* nonnull dereferenceable(1) getelementptr inbounds ([3 x i8], [3 x i8]* @.str, i64 0, i64 0), i8* nonnull %2)
  call void @llvm.lifetime.end.p0i8(i64 10000, i8* nonnull %2) #4
  ret i32 0
}

; Function Attrs: argmemonly mustprogress nofree nosync nounwind willreturn
declare void @llvm.lifetime.start.p0i8(i64 immarg, i8* nocapture) #1

declare i32 @gets(...) local_unnamed_addr #2

; Function Attrs: nofree nounwind
declare noundef i32 @printf(i8* nocapture noundef readonly, ...) local_unnamed_addr #3

; Function Attrs: argmemonly mustprogress nofree nosync nounwind willreturn
declare void @llvm.lifetime.end.p0i8(i64 immarg, i8* nocapture) #1


!llvm.module.flags = !{!0, !1, !2, !3}
!llvm.ident = !{!4}

!0 = !{i32 1, !"wchar_size", i32 4}
!1 = !{i32 7, !"PIC Level", i32 2}
!2 = !{i32 7, !"PIE Level", i32 2}
!3 = !{i32 7, !"uwtable", i32 1}
!4 = !{!"clang version 13.0.0"}
!5 = !{!6, !6, i64 0}
!6 = !{!"omnipotent char", !7, i64 0}
!7 = !{!"Simple C/C++ TBAA"}
!8 = distinct !{!8, !9}
!9 = !{!"llvm.loop.mustprogress"}
